; Function Attrs: nounwind uwtable
define i32 @SDL_asprintf(ptr noundef %0, ptr noundef %1, ...) local_unnamed_addr #0 {
  %3 = alloca [1 x %struct.__va_list_tag], align 16
  call void @llvm.lifetime.start.p0(i64 24, ptr nonnull %3) #12
  call void @llvm.va_start.p0(ptr nonnull %3)
  %4 = load ptr, ptr getelementptr inbounds nuw (i8, ptr @jump_table, i64 9264), align 8
  %5 = call i32 %4(ptr noundef %0, ptr noundef %1, ptr noundef nonnull %3) #12
  call void @llvm.va_end.p0(ptr nonnull %3)
  call void @llvm.lifetime.end.p0(i64 24, ptr nonnull %3) #12
  ret i32 %5
}